; Function Attrs: nounwind sspstrong uwtable
define hidden void @rb_class_foreach_subclass(i64 noundef %0, ptr noundef readonly captures(none) %1, i64 noundef %2) local_unnamed_addr #0 {
  %4 = inttoptr i64 %0 to ptr
  %5 = getelementptr inbounds nuw i8, ptr %4, i64 88
  %6 = load ptr, ptr %5, align 8, !tbaa !14
  %.not = icmp eq ptr %6, null
  br i1 %.not, label %._crit_edge, label %7

7:                                                ; preds = %3
  %8 = getelementptr inbounds nuw i8, ptr %6, i64 8
  %9 = load ptr, ptr %8, align 8, !tbaa !23
  %.not1011 = icmp eq ptr %9, null
  br i1 %.not1011, label %._crit_edge, label %.lr.ph

.lr.ph:                                           ; preds = %7, %.lr.ph
  %.112 = phi ptr [ %12, %.lr.ph ], [ %9, %7 ]
  %10 = load i64, ptr %.112, align 8, !tbaa !7
  %11 = getelementptr inbounds nuw i8, ptr %.112, i64 8
  %12 = load ptr, ptr %11, align 8, !tbaa !23
  tail call void %1(i64 noundef %10, i64 noundef %2) #19
  %.not10 = icmp eq ptr %12, null
  br i1 %.not10, label %._crit_edge, label %.lr.ph, !llvm.loop !27

._crit_edge:                                      ; preds = %.lr.ph, %3, %7
  ret void
}